; Function Attrs: mustprogress nofree norecurse nosync nounwind willreturn memory(readwrite, inaccessiblemem: none) uwtable
define ptr @BrotliDecoderTakeOutput(ptr noundef captures(none) %0, ptr noundef captures(none) %1) local_unnamed_addr #12 {
  %3 = alloca ptr, align 8
  %4 = alloca i64, align 8
  call void @llvm.lifetime.start.p0(i64 8, ptr nonnull %3) #22
  store ptr null, ptr %3, align 8, !tbaa !24
  call void @llvm.lifetime.start.p0(i64 8, ptr nonnull %4) #22
  %5 = load i64, ptr %1, align 8, !tbaa !25
  %.not = icmp eq i64 %5, 0
  %spec.select = select i1 %.not, i64 16777216, i64 %5
  store i64 %spec.select, ptr %4, align 8, !tbaa !25
  %6 = getelementptr inbounds nuw i8, ptr %0, i64 136
  %7 = load ptr, ptr %6, align 8, !tbaa !43
  %8 = icmp eq ptr %7, null
  br i1 %8, label %13, label %9

9:                                                ; preds = %2
  %10 = getelementptr inbounds nuw i8, ptr %0, i64 128
  %11 = load i32, ptr %10, align 8, !tbaa !38
  %12 = icmp slt i32 %11, 0
  br i1 %12, label %13, label %14

13:                                               ; preds = %9, %2
  store i64 0, ptr %1, align 8, !tbaa !25
  br label %25

14:                                               ; preds = %9
  tail call fastcc void @WrapRingBuffer(ptr noundef nonnull %0)
  %15 = call fastcc i32 @WriteRingBuffer(ptr noundef nonnull %0, ptr noundef nonnull %4, ptr noundef nonnull %3, ptr noundef null, i32 noundef 1)
  %16 = and i32 %15, -3
  %or.cond = icmp eq i32 %16, 1
  br i1 %or.cond, label %17, label %20

17:                                               ; preds = %14
  %18 = load i64, ptr %4, align 8, !tbaa !25
  %19 = sub i64 %spec.select, %18
  store i64 %19, ptr %1, align 8, !tbaa !25
  %.pre = load ptr, ptr %3, align 8, !tbaa !24
  br label %25

20:                                               ; preds = %14
  %21 = icmp slt i32 %15, 0
  br i1 %21, label %22, label %24

22:                                               ; preds = %20
  %23 = call fastcc i32 @SaveErrorCode(ptr noundef nonnull %0, i32 noundef %15, i64 noundef 0)
  br label %24

24:                                               ; preds = %22, %20
  store i64 0, ptr %1, align 8, !tbaa !25
  br label %25

25:                                               ; preds = %17, %24, %13
  %.0 = phi ptr [ null, %13 ], [ null, %24 ], [ %.pre, %17 ]
  call void @llvm.lifetime.end.p0(i64 8, ptr nonnull %4) #22
  call void @llvm.lifetime.end.p0(i64 8, ptr nonnull %3) #22
  ret ptr %.0
}